; Function Attrs: mustprogress uwtable
define noundef i64 @_ZN5fds_t5allocEi(ptr noundef nonnull align 8 dereferenceable(24) %0, i32 noundef %1) local_unnamed_addr #3 align 2 personality ptr @__gxx_personality_v0 {
  %3 = getelementptr inbounds i8, ptr %0, i64 8
  %4 = load ptr, ptr %3, align 8
  %5 = load ptr, ptr %0, align 8
  %6 = ptrtoint ptr %4 to i64
  %7 = ptrtoint ptr %5 to i64
  %8 = sub i64 %6, %7
  %9 = ashr exact i64 %8, 2
  %.not = icmp eq ptr %4, %5
  br i1 %.not, label %._crit_edge, label %.lr.ph.preheader

.lr.ph.preheader:                                 ; preds = %2
  %umax = tail call i64 @llvm.umax.i64(i64 %9, i64 1)
  br label %.lr.ph

.lr.ph:                                           ; preds = %.lr.ph.preheader, %13
  %.011 = phi i64 [ %14, %13 ], [ 0, %.lr.ph.preheader ]
  %10 = getelementptr inbounds i32, ptr %5, i64 %.011
  %11 = load i32, ptr %10, align 4
  %12 = icmp eq i32 %11, -1
  br i1 %12, label %._crit_edge, label %13

13:                                               ; preds = %.lr.ph
  %14 = add nuw i64 %.011, 1
  %exitcond.not = icmp eq i64 %14, %umax
  br i1 %exitcond.not, label %._crit_edge, label %.lr.ph, !llvm.loop !6

._crit_edge:                                      ; preds = %13, %.lr.ph, %2
  %.0.lcssa = phi i64 [ 0, %2 ], [ %.011, %.lr.ph ], [ %umax, %13 ]
  %15 = icmp eq i64 %.0.lcssa, %9
  br i1 %15, label %16, label %_ZNSt6vectorIiSaIiEE6resizeEm.exit

16:                                               ; preds = %._crit_edge
  %.not20 = icmp eq i64 %8, -4
  br i1 %.not20, label %18, label %17

17:                                               ; preds = %16
  tail call void @_ZNSt6vectorIiSaIiEE17_M_default_appendEm(ptr noundef nonnull align 8 dereferenceable(24) %0, i64 noundef 1)
  %.pre = load ptr, ptr %0, align 8
  br label %_ZNSt6vectorIiSaIiEE6resizeEm.exit

18:                                               ; preds = %16
  %19 = getelementptr i8, ptr %5, i64 %8
  %20 = getelementptr i8, ptr %19, i64 4
  %.not.i.i = icmp eq ptr %4, %20
  br i1 %.not.i.i, label %_ZNSt6vectorIiSaIiEE6resizeEm.exit, label %21

21:                                               ; preds = %18
  store ptr %20, ptr %3, align 8
  br label %_ZNSt6vectorIiSaIiEE6resizeEm.exit

_ZNSt6vectorIiSaIiEE6resizeEm.exit:               ; preds = %21, %18, %17, %._crit_edge
  %22 = phi ptr [ %5, %21 ], [ %5, %18 ], [ %.pre, %17 ], [ %5, %._crit_edge ]
  %23 = getelementptr inbounds i32, ptr %22, i64 %.0.lcssa
  store i32 %1, ptr %23, align 4
  ret i64 %.0.lcssa
}